target datalayout = "e-m:e-p270:32:32-p271:32:32-p272:64:64-i64:64-i128:128-f80:128-n8:16:32:64-S128"
target triple = "x86_64-unknown-linux-gnu"

%"class.icu_75::StandardPluralRanges" = type { %"class.icu_75::MaybeStackArray.0", i32, [4 x i8] }
%"class.icu_75::MaybeStackArray.0" = type <{ ptr, i32, i8, [3 x i8], [3 x %"struct.icu_75::StandardPluralRanges::StandardPluralRangeTriple"], [4 x i8] }>
%"struct.icu_75::StandardPluralRanges::StandardPluralRangeTriple" = type { i32, i32, i32 }

; Function Attrs: mustprogress uwtable
define linkonce_odr void @_ZN6icu_7515MaybeStackArrayINS_20StandardPluralRanges25StandardPluralRangeTripleELi3EE12releaseArrayEv(ptr noundef nonnull align 8 dereferenceable(52) %this) #1 comdat align 2 {
entry:
  %this.addr = alloca ptr, align 8
  store ptr %this, ptr %this.addr, align 8
  %this1 = load ptr, ptr %this.addr, align 8
  %needToRelease = getelementptr inbounds %"class.icu_75::MaybeStackArray.0", ptr %this1, i32 0, i32 2
  %0 = load i8, ptr %needToRelease, align 4
  %tobool = icmp ne i8 %0, 0
  br i1 %tobool, label %if.then, label %if.end

if.then:                                          ; preds = %entry
  %ptr = getelementptr inbounds %"class.icu_75::MaybeStackArray.0", ptr %this1, i32 0, i32 0
  %1 = load ptr, ptr %ptr, align 8
  call void @uprv_free_75(ptr noundef %1)
  br label %if.end

if.end:                                           ; preds = %if.then, %entry
  ret void
}

; Function Attrs: mustprogress nounwind uwtable
define linkonce_odr void @_ZN6icu_7515MaybeStackArrayINS_20StandardPluralRanges25StandardPluralRangeTripleELi3EEC2Ev(ptr noundef nonnull align 8 dereferenceable(52) %this) unnamed_addr #0 comdat align 2 {
entry:
  %this.addr = alloca ptr, align 8
  store ptr %this, ptr %this.addr, align 8
  %this1 = load ptr, ptr %this.addr, align 8
  %ptr = getelementptr inbounds %"class.icu_75::MaybeStackArray.0", ptr %this1, i32 0, i32 0
  %stackArray = getelementptr inbounds %"class.icu_75::MaybeStackArray.0", ptr %this1, i32 0, i32 4
  %arraydecay = getelementptr inbounds [3 x %"struct.icu_75::StandardPluralRanges::StandardPluralRangeTriple"], ptr %stackArray, i64 0, i64 0
  store ptr %arraydecay, ptr %ptr, align 8
  %capacity = getelementptr inbounds %"class.icu_75::MaybeStackArray.0", ptr %this1, i32 0, i32 1
  store i32 3, ptr %capacity, align 8
  %needToRelease = getelementptr inbounds %"class.icu_75::MaybeStackArray.0", ptr %this1, i32 0, i32 2
  store i8 0, ptr %needToRelease, align 4
  ret void
}

; Function Attrs: mustprogress nounwind uwtable
define linkonce_odr noundef ptr @_ZNK6icu_7515MaybeStackArrayINS_20StandardPluralRanges25StandardPluralRangeTripleELi3EE8getAliasEv(ptr noundef nonnull align 8 dereferenceable(52) %this) #0 comdat align 2 {
entry:
  %this.addr = alloca ptr, align 8
  store ptr %this, ptr %this.addr, align 8
  %this1 = load ptr, ptr %this.addr, align 8
  %ptr = getelementptr inbounds %"class.icu_75::MaybeStackArray.0", ptr %this1, i32 0, i32 0
  %0 = load ptr, ptr %ptr, align 8
  ret ptr %0
}

; Function Attrs: mustprogress uwtable
define linkonce_odr noundef ptr @_ZN6icu_7515MaybeStackArrayINS_20StandardPluralRanges25StandardPluralRangeTripleELi3EE6resizeEii(ptr noundef nonnull align 8 dereferenceable(52) %this, i32 noundef %newCapacity, i32 noundef %length) #1 comdat align 2 {
entry:
  %retval = alloca ptr, align 8
  %this.addr = alloca ptr, align 8
  %newCapacity.addr = alloca i32, align 4
  %length.addr = alloca i32, align 4
  %p = alloca ptr, align 8
  store ptr %this, ptr %this.addr, align 8
  store i32 %newCapacity, ptr %newCapacity.addr, align 4
  store i32 %length, ptr %length.addr, align 4
  %this1 = load ptr, ptr %this.addr, align 8
  %0 = load i32, ptr %newCapacity.addr, align 4
  %cmp = icmp sgt i32 %0, 0
  br i1 %cmp, label %if.then, label %if.else

if.then:                                          ; preds = %entry
  %1 = load i32, ptr %newCapacity.addr, align 4
  %conv = sext i32 %1 to i64
  %mul = mul i64 %conv, 12
  %call = call noalias ptr @uprv_malloc_75(i64 noundef %mul) #8
  store ptr %call, ptr %p, align 8
  %2 = load ptr, ptr %p, align 8
  %cmp2 = icmp ne ptr %2, null
  br i1 %cmp2, label %if.then3, label %if.end17

if.then3:                                         ; preds = %if.then
  %3 = load i32, ptr %length.addr, align 4
  %cmp4 = icmp sgt i32 %3, 0
  br i1 %cmp4, label %if.then5, label %if.end14

if.then5:                                         ; preds = %if.then3
  %4 = load i32, ptr %length.addr, align 4
  %capacity = getelementptr inbounds %"class.icu_75::MaybeStackArray.0", ptr %this1, i32 0, i32 1
  %5 = load i32, ptr %capacity, align 8
  %cmp6 = icmp sgt i32 %4, %5
  br i1 %cmp6, label %if.then7, label %if.end

if.then7:                                         ; preds = %if.then5
  %capacity8 = getelementptr inbounds %"class.icu_75::MaybeStackArray.0", ptr %this1, i32 0, i32 1
  %6 = load i32, ptr %capacity8, align 8
  store i32 %6, ptr %length.addr, align 4
  br label %if.end

if.end:                                           ; preds = %if.then7, %if.then5
  %7 = load i32, ptr %length.addr, align 4
  %8 = load i32, ptr %newCapacity.addr, align 4
  %cmp9 = icmp sgt i32 %7, %8
  br i1 %cmp9, label %if.then10, label %if.end11

if.then10:                                        ; preds = %if.end
  %9 = load i32, ptr %newCapacity.addr, align 4
  store i32 %9, ptr %length.addr, align 4
  br label %if.end11

if.end11:                                         ; preds = %if.then10, %if.end
  br label %do.body

do.body:                                          ; preds = %if.end11
  %10 = load ptr, ptr %p, align 8
  %ptr = getelementptr inbounds %"class.icu_75::MaybeStackArray.0", ptr %this1, i32 0, i32 0
  %11 = load ptr, ptr %ptr, align 8
  %12 = load i32, ptr %length.addr, align 4
  %conv12 = sext i32 %12 to i64
  %mul13 = mul i64 %conv12, 12
  call void @llvm.memcpy.p0.p0.i64(ptr align 4 %10, ptr align 4 %11, i64 %mul13, i1 false)
  br label %do.end

do.end:                                           ; preds = %do.body
  br label %if.end14

if.end14:                                         ; preds = %do.end, %if.then3
  call void @_ZN6icu_7515MaybeStackArrayINS_20StandardPluralRanges25StandardPluralRangeTripleELi3EE12releaseArrayEv(ptr noundef nonnull align 8 dereferenceable(52) %this1)
  %13 = load ptr, ptr %p, align 8
  %ptr15 = getelementptr inbounds %"class.icu_75::MaybeStackArray.0", ptr %this1, i32 0, i32 0
  store ptr %13, ptr %ptr15, align 8
  %14 = load i32, ptr %newCapacity.addr, align 4
  %capacity16 = getelementptr inbounds %"class.icu_75::MaybeStackArray.0", ptr %this1, i32 0, i32 1
  store i32 %14, ptr %capacity16, align 8
  %needToRelease = getelementptr inbounds %"class.icu_75::MaybeStackArray.0", ptr %this1, i32 0, i32 2
  store i8 1, ptr %needToRelease, align 4
  br label %if.end17

if.end17:                                         ; preds = %if.end14, %if.then
  %15 = load ptr, ptr %p, align 8
  store ptr %15, ptr %retval, align 8
  br label %return

if.else:                                          ; preds = %entry
  store ptr null, ptr %retval, align 8
  br label %return

return:                                           ; preds = %if.else, %if.end17
  %16 = load ptr, ptr %retval, align 8
  ret ptr %16
}

; Function Attrs: mustprogress nounwind uwtable
define linkonce_odr noundef i32 @_ZNK6icu_7515MaybeStackArrayINS_20StandardPluralRanges25StandardPluralRangeTripleELi3EE11getCapacityEv(ptr noundef nonnull align 8 dereferenceable(52) %this) #0 comdat align 2 {
entry:
  %this.addr = alloca ptr, align 8
  store ptr %this, ptr %this.addr, align 8
  %this1 = load ptr, ptr %this.addr, align 8
  %capacity = getelementptr inbounds %"class.icu_75::MaybeStackArray.0", ptr %this1, i32 0, i32 1
  %0 = load i32, ptr %capacity, align 8
  ret i32 %0
}

; Function Attrs: mustprogress uwtable
define linkonce_odr void @_ZN6icu_7520StandardPluralRangesC2Ev(ptr noundef nonnull align 8 dereferenceable(60) %this) unnamed_addr #1 comdat align 2 {
entry:
  %this.addr = alloca ptr, align 8
  store ptr %this, ptr %this.addr, align 8
  %this1 = load ptr, ptr %this.addr, align 8
  %fTriples = getelementptr inbounds %"class.icu_75::StandardPluralRanges", ptr %this1, i32 0, i32 0
  call void @_ZN6icu_7515MaybeStackArrayINS_20StandardPluralRanges25StandardPluralRangeTripleELi3EEC2Ev(ptr noundef nonnull align 8 dereferenceable(52) %fTriples)
  %fTriplesLen = getelementptr inbounds %"class.icu_75::StandardPluralRanges", ptr %this1, i32 0, i32 1
  store i32 0, ptr %fTriplesLen, align 8
  ret void
}

; Function Attrs: mustprogress uwtable
define void @_ZNK6icu_7520StandardPluralRanges4copyER10UErrorCode(ptr noalias sret(%"class.icu_75::StandardPluralRanges") align 8 %agg.result, ptr noundef nonnull align 8 dereferenceable(60) %this, ptr noundef nonnull align 4 dereferenceable(4) %status) #1 align 2 personality ptr @__gxx_personality_v0 {
entry:
  %result.ptr = alloca ptr, align 8
  %this.addr = alloca ptr, align 8
  %status.addr = alloca ptr, align 8
  %nrvo = alloca i1, align 1
  %exn.slot = alloca ptr, align 8
  %ehselector.slot = alloca i32, align 4
  %cleanup.dest.slot = alloca i32, align 4
  store ptr %agg.result, ptr %result.ptr, align 8
  store ptr %this, ptr %this.addr, align 8
  store ptr %status, ptr %status.addr, align 8
  %this1 = load ptr, ptr %this.addr, align 8
  store i1 false, ptr %nrvo, align 1
  call void @_ZN6icu_7520StandardPluralRangesC2Ev(ptr noundef nonnull align 8 dereferenceable(60) %agg.result)
  %fTriplesLen = getelementptr inbounds %"class.icu_75::StandardPluralRanges", ptr %this1, i32 0, i32 1
  %0 = load i32, ptr %fTriplesLen, align 8
  %fTriples = getelementptr inbounds %"class.icu_75::StandardPluralRanges", ptr %agg.result, i32 0, i32 0
  %call = invoke noundef i32 @_ZNK6icu_7515MaybeStackArrayINS_20StandardPluralRanges25StandardPluralRangeTripleELi3EE11getCapacityEv(ptr noundef nonnull align 8 dereferenceable(52) %fTriples)
          to label %invoke.cont unwind label %lpad

invoke.cont:                                      ; preds = %entry
  %cmp = icmp sgt i32 %0, %call
  br i1 %cmp, label %if.then, label %if.end8

if.then:                                          ; preds = %invoke.cont
  %fTriples2 = getelementptr inbounds %"class.icu_75::StandardPluralRanges", ptr %agg.result, i32 0, i32 0
  %fTriplesLen3 = getelementptr inbounds %"class.icu_75::StandardPluralRanges", ptr %this1, i32 0, i32 1
  %1 = load i32, ptr %fTriplesLen3, align 8
  %call5 = invoke noundef ptr @_ZN6icu_7515MaybeStackArrayINS_20StandardPluralRanges25StandardPluralRangeTripleELi3EE6resizeEii(ptr noundef nonnull align 8 dereferenceable(52) %fTriples2, i32 noundef %1, i32 noundef 0)
          to label %invoke.cont4 unwind label %lpad

invoke.cont4:                                     ; preds = %if.then
  %cmp6 = icmp eq ptr %call5, null
  br i1 %cmp6, label %if.then7, label %if.end

if.then7:                                         ; preds = %invoke.cont4
  %2 = load ptr, ptr %status.addr, align 8
  store i32 7, ptr %2, align 4
  store i1 true, ptr %nrvo, align 1
  store i32 1, ptr %cleanup.dest.slot, align 4
  br label %cleanup

lpad:                                             ; preds = %invoke.cont10, %do.body, %if.then, %entry
  %3 = landingpad { ptr, i32 }
          cleanup
  %4 = extractvalue { ptr, i32 } %3, 0
  store ptr %4, ptr %exn.slot, align 8
  %5 = extractvalue { ptr, i32 } %3, 1
  store i32 %5, ptr %ehselector.slot, align 4
  call void @_ZN6icu_7520StandardPluralRangesD2Ev(ptr noundef nonnull align 8 dereferenceable(60) %agg.result) #7
  br label %eh.resume

if.end:                                           ; preds = %invoke.cont4
  br label %if.end8

if.end8:                                          ; preds = %if.end, %invoke.cont
  br label %do.body

do.body:                                          ; preds = %if.end8
  %fTriples9 = getelementptr inbounds %"class.icu_75::StandardPluralRanges", ptr %agg.result, i32 0, i32 0
  %call11 = invoke noundef ptr @_ZNK6icu_7515MaybeStackArrayINS_20StandardPluralRanges25StandardPluralRangeTripleELi3EE8getAliasEv(ptr noundef nonnull align 8 dereferenceable(52) %fTriples9)
          to label %invoke.cont10 unwind label %lpad

invoke.cont10:                                    ; preds = %do.body
  %fTriples12 = getelementptr inbounds %"class.icu_75::StandardPluralRanges", ptr %this1, i32 0, i32 0
  %call14 = invoke noundef ptr @_ZNK6icu_7515MaybeStackArrayINS_20StandardPluralRanges25StandardPluralRangeTripleELi3EE8getAliasEv(ptr noundef nonnull align 8 dereferenceable(52) %fTriples12)
          to label %invoke.cont13 unwind label %lpad

invoke.cont13:                                    ; preds = %invoke.cont10
  %fTriplesLen15 = getelementptr inbounds %"class.icu_75::StandardPluralRanges", ptr %this1, i32 0, i32 1
  %6 = load i32, ptr %fTriplesLen15, align 8
  %conv = sext i32 %6 to i64
  %mul = mul i64 %conv, 12
  call void @llvm.memcpy.p0.p0.i64(ptr align 4 %call11, ptr align 4 %call14, i64 %mul, i1 false)
  br label %do.cond

do.cond:                                          ; preds = %invoke.cont13
  br label %do.end

do.end:                                           ; preds = %do.cond
  %fTriplesLen16 = getelementptr inbounds %"class.icu_75::StandardPluralRanges", ptr %this1, i32 0, i32 1
  %7 = load i32, ptr %fTriplesLen16, align 8
  %fTriplesLen17 = getelementptr inbounds %"class.icu_75::StandardPluralRanges", ptr %agg.result, i32 0, i32 1
  store i32 %7, ptr %fTriplesLen17, align 8
  store i1 true, ptr %nrvo, align 1
  store i32 1, ptr %cleanup.dest.slot, align 4
  br label %cleanup

cleanup:                                          ; preds = %do.end, %if.then7
  %nrvo.val = load i1, ptr %nrvo, align 1
  br i1 %nrvo.val, label %nrvo.skipdtor, label %nrvo.unused

nrvo.unused:                                      ; preds = %cleanup
  call void @_ZN6icu_7520StandardPluralRangesD2Ev(ptr noundef nonnull align 8 dereferenceable(60) %agg.result) #7
  br label %nrvo.skipdtor

nrvo.skipdtor:                                    ; preds = %nrvo.unused, %cleanup
  ret void

eh.resume:                                        ; preds = %lpad
  %exn = load ptr, ptr %exn.slot, align 8
  %sel = load i32, ptr %ehselector.slot, align 4
  %lpad.val = insertvalue { ptr, i32 } poison, ptr %exn, 0
  %lpad.val18 = insertvalue { ptr, i32 } %lpad.val, i32 %sel, 1
  resume { ptr, i32 } %lpad.val18
}