; Function Attrs: mustprogress uwtable
define void @_ZNK6icu_7520StandardPluralRanges4copyER10UErrorCode(ptr noalias sret(%"class.icu_75::StandardPluralRanges") align 8 %agg.result, ptr nocapture noundef nonnull readonly align 8 dereferenceable(60) %this, ptr nocapture noundef nonnull writeonly align 4 dereferenceable(4) %status) local_unnamed_addr #1 align 2 personality ptr @__gxx_personality_v0 {
entry:
  %stackArray.i.i = getelementptr inbounds i8, ptr %agg.result, i64 16
  store ptr %stackArray.i.i, ptr %agg.result, align 8
  %capacity.i.i = getelementptr inbounds i8, ptr %agg.result, i64 8
  store i32 3, ptr %capacity.i.i, align 8
  %needToRelease.i.i = getelementptr inbounds i8, ptr %agg.result, i64 12
  store i8 0, ptr %needToRelease.i.i, align 4
  %fTriplesLen.i = getelementptr inbounds i8, ptr %agg.result, i64 56
  store i32 0, ptr %fTriplesLen.i, align 8
  %fTriplesLen = getelementptr inbounds i8, ptr %this, i64 56
  %0 = load i32, ptr %fTriplesLen, align 8
  %cmp = icmp sgt i32 %0, 3
  br i1 %cmp, label %if.then.i, label %do.body

if.then.i:                                        ; preds = %entry
  %conv.i = zext nneg i32 %0 to i64
  %mul.i = mul nuw nsw i64 %conv.i, 12
  %call.i2 = invoke noalias ptr @uprv_malloc_75(i64 noundef %mul.i) #12
          to label %call.i.noexc unwind label %lpad

call.i.noexc:                                     ; preds = %if.then.i
  %cmp2.not.i = icmp eq ptr %call.i2, null
  br i1 %cmp2.not.i, label %if.then7, label %if.then3.i

if.then3.i:                                       ; preds = %call.i.noexc
  %1 = load i8, ptr %needToRelease.i.i, align 4
  %tobool.not.i.i = icmp eq i8 %1, 0
  br i1 %tobool.not.i.i, label %invoke.cont4, label %if.then.i.i

if.then.i.i:                                      ; preds = %if.then3.i
  %2 = load ptr, ptr %agg.result, align 8
  invoke void @uprv_free_75(ptr noundef %2)
          to label %invoke.cont4 unwind label %lpad

invoke.cont4:                                     ; preds = %if.then3.i, %if.then.i.i
  store ptr %call.i2, ptr %agg.result, align 8
  store i32 %0, ptr %capacity.i.i, align 8
  store i8 1, ptr %needToRelease.i.i, align 4
  %.pre = load i32, ptr %fTriplesLen, align 8
  br label %do.body

if.then7:                                         ; preds = %call.i.noexc
  store i32 7, ptr %status, align 4
  br label %nrvo.skipdtor

lpad:                                             ; preds = %if.then.i.i, %if.then.i
  %3 = landingpad { ptr, i32 }
          cleanup
  tail call void @_ZN6icu_7520StandardPluralRangesD2Ev(ptr noundef nonnull align 8 dereferenceable(60) %agg.result) #11
  resume { ptr, i32 } %3

do.body:                                          ; preds = %invoke.cont4, %entry
  %4 = phi i32 [ %.pre, %invoke.cont4 ], [ %0, %entry ]
  %5 = phi ptr [ %call.i2, %invoke.cont4 ], [ %stackArray.i.i, %entry ]
  %6 = load ptr, ptr %this, align 8
  %conv = sext i32 %4 to i64
  %mul = mul nsw i64 %conv, 12
  tail call void @llvm.memcpy.p0.p0.i64(ptr nonnull align 4 %5, ptr align 4 %6, i64 %mul, i1 false)
  store i32 %4, ptr %fTriplesLen.i, align 8
  br label %nrvo.skipdtor

nrvo.skipdtor:                                    ; preds = %if.then7, %do.body
  ret void
}